; Function Attrs: mustprogress uwtable
define internal noundef i32 @_ZL14ustrenum_countP12UEnumerationP10UErrorCode(ptr noundef readonly captures(none) %0, ptr noundef %1) #9 {
  %3 = getelementptr inbounds nuw i8, ptr %0, i64 8
  %4 = load ptr, ptr %3, align 8, !tbaa !27
  %5 = load ptr, ptr %4, align 8, !tbaa !3
  %6 = getelementptr inbounds nuw i8, ptr %5, i64 32
  %7 = load ptr, ptr %6, align 8
  %8 = tail call noundef i32 %7(ptr noundef nonnull align 8 dereferenceable(116) %4, ptr noundef nonnull align 4 dereferenceable(4) %1)
  ret i32 %8
}